; Function Attrs: mustprogress uwtable
define void @_ZN3net30QuicMultipathSentPacketManager23OnRetransmissionTimeoutEv(ptr noundef nonnull readonly align 8 captures(none) dereferenceable(40) %0) unnamed_addr #0 align 2 personality ptr @__gxx_personality_v0 {
  %2 = getelementptr inbounds nuw i8, ptr %0, i64 8
  %3 = getelementptr inbounds nuw i8, ptr %0, i64 16
  %4 = load ptr, ptr %3, align 8, !tbaa !17
  %5 = load ptr, ptr %2, align 8, !tbaa !19
  %.not18.i = icmp eq ptr %4, %5
  br i1 %.not18.i, label %.loopexit, label %.lr.ph.i

.lr.ph.i:                                         ; preds = %1, %22
  %6 = phi ptr [ %25, %22 ], [ %5, %1 ]
  %.017.i = phi i8 [ %.1.i, %22 ], [ -1, %1 ]
  %.0816.i = phi i64 [ %23, %22 ], [ 0, %1 ]
  %.sroa.011.015.i = phi i64 [ %.sroa.011.1.i, %22 ], [ 0, %1 ]
  %7 = getelementptr inbounds nuw %"struct.net::QuicMultipathSentPacketManager::PathSentPacketManagerInfo", ptr %6, i64 %.0816.i
  %8 = load ptr, ptr %7, align 8, !tbaa !21
  %9 = icmp eq ptr %8, null
  br i1 %9, label %22, label %10

10:                                               ; preds = %.lr.ph.i
  %11 = getelementptr inbounds nuw i8, ptr %7, i64 8
  %12 = load i32, ptr %11, align 8, !tbaa !25
  %.not.i = icmp eq i32 %12, 0
  br i1 %.not.i, label %13, label %22

13:                                               ; preds = %10
  %14 = load ptr, ptr %8, align 8, !tbaa !3
  %15 = getelementptr inbounds nuw i8, ptr %14, i64 144
  %16 = load ptr, ptr %15, align 8
  %17 = tail call i64 %16(ptr noundef nonnull align 8 dereferenceable(8) %8)
  %.not14.i = icmp eq i64 %17, 0
  br i1 %.not14.i, label %22, label %18

18:                                               ; preds = %13
  %19 = icmp eq i64 %.sroa.011.015.i, 0
  %20 = icmp slt i64 %17, %.sroa.011.015.i
  %or.cond.i = or i1 %19, %20
  %21 = trunc i64 %.0816.i to i8
  %spec.select.i = select i1 %or.cond.i, i64 %17, i64 %.sroa.011.015.i
  %spec.select13.i = select i1 %or.cond.i, i8 %21, i8 %.017.i
  br label %22

22:                                               ; preds = %18, %13, %10, %.lr.ph.i
  %.sroa.011.1.i = phi i64 [ %.sroa.011.015.i, %.lr.ph.i ], [ %.sroa.011.015.i, %10 ], [ %.sroa.011.015.i, %13 ], [ %spec.select.i, %18 ]
  %.1.i = phi i8 [ %.017.i, %.lr.ph.i ], [ %.017.i, %10 ], [ %.017.i, %13 ], [ %spec.select13.i, %18 ]
  %23 = add nuw i64 %.0816.i, 1
  %24 = load ptr, ptr %3, align 8, !tbaa !17
  %25 = load ptr, ptr %2, align 8, !tbaa !19
  %26 = ptrtoint ptr %24 to i64
  %27 = ptrtoint ptr %25 to i64
  %28 = sub i64 %26, %27
  %29 = ashr exact i64 %28, 4
  %30 = icmp ult i64 %23, %29
  br i1 %30, label %.lr.ph.i, label %.loopexit, !llvm.loop !108

.loopexit:                                        ; preds = %22, %1
  %.0.lcssa.i = phi i8 [ -1, %1 ], [ %.1.i, %22 ]
  %31 = tail call noundef ptr @_ZNK3net30QuicMultipathSentPacketManager38MaybeGetSentPacketManagerForActivePathEh(ptr noundef nonnull align 8 dereferenceable(40) %0, i8 noundef zeroext %.0.lcssa.i)
  %32 = icmp eq ptr %31, null
  br i1 %32, label %33, label %34

33:                                               ; preds = %.loopexit
  tail call void @_ZN3net30QuicMultipathSentPacketManager24OnUnrecoverablePathErrorEh(ptr noundef nonnull align 8 dereferenceable(40) %0, i8 noundef zeroext %.0.lcssa.i)
  br label %38

34:                                               ; preds = %.loopexit
  %35 = load ptr, ptr %31, align 8, !tbaa !3
  %36 = getelementptr inbounds nuw i8, ptr %35, i64 128
  %37 = load ptr, ptr %36, align 8
  tail call void %37(ptr noundef nonnull align 8 dereferenceable(8) %31)
  br label %38

38:                                               ; preds = %34, %33
  ret void
}